target datalayout = "e-m:e-p270:32:32-p271:32:32-p272:64:64-i64:64-i128:128-f80:128-n8:16:32:64-S128"
target triple = "x86_64-pc-linux-gnu"

%struct.AVFilterContext = type { ptr, ptr, ptr, ptr, ptr, i32, ptr, ptr, i32, ptr, ptr, i32, i32, ptr, ptr, ptr, ptr, i32, ptr, i32, i32 }
%struct.BM3DContext = type { ptr, float, i32, i32, i32, i32, i32, float, float, i32, i32, i32, i32, i32, i32, [4 x i32], [4 x i32], i32, i32, [32 x %struct.SliceContext], %struct.FFFrameSync, i32, ptr, ptr, ptr, ptr }
%struct.SliceContext = type { ptr, ptr, ptr, ptr, ptr, ptr, ptr, ptr, ptr, ptr, ptr, ptr, ptr, ptr, ptr, ptr, ptr, ptr, ptr, [256 x %struct.PosPairCode], i32, ptr }
%struct.PosPairCode = type { double, i32, i32 }
%struct.FFFrameSync = type { ptr, ptr, i32, %struct.AVRational, i64, ptr, ptr, i32, i32, i8, i8, ptr, i32, i32, i32, i32 }
%struct.AVRational = type { i32, i32 }
%struct.AVFilterLink = type { ptr, ptr, ptr, ptr, i32, i32, i32, i32, %struct.AVRational, i32, i32, i32, %struct.AVChannelLayout, %struct.AVRational, ptr, i32, %struct.AVFilterFormatsConfig, %struct.AVFilterFormatsConfig }
%struct.AVChannelLayout = type { i32, i32, %union.anon.1, ptr }
%union.anon.1 = type { i64 }
%struct.AVFilterFormatsConfig = type { ptr, ptr, ptr, ptr, ptr }
%struct.AVFrame = type { [8 x ptr], [8 x i32], ptr, i32, i32, i32, i32, i32, %struct.AVRational, i64, i64, %struct.AVRational, i32, ptr, i32, i32, [8 x ptr], ptr, i32, ptr, i32, i32, i32, i32, i32, i32, i32, i64, ptr, i32, ptr, ptr, i64, i64, i64, i64, ptr, %struct.AVChannelLayout, i64 }
%struct.ThreadData = type { ptr, i32, ptr, i32, i32 }

; Function Attrs: nounwind uwtable
define internal i32 @filter_frame(ptr noundef %0, ptr noundef %1, ptr noundef %2, ptr noundef %3) #1 {
  %5 = alloca i32, align 4
  %6 = alloca ptr, align 8
  %7 = alloca ptr, align 8
  %8 = alloca ptr, align 8
  %9 = alloca ptr, align 8
  %10 = alloca ptr, align 8
  %11 = alloca ptr, align 8
  %12 = alloca i32, align 4
  %13 = alloca i32, align 4
  %14 = alloca i32, align 4
  %15 = alloca %struct.ThreadData, align 8
  store ptr %0, ptr %6, align 8, !tbaa !4
  store ptr %1, ptr %7, align 8, !tbaa !86
  store ptr %2, ptr %8, align 8, !tbaa !49
  store ptr %3, ptr %9, align 8, !tbaa !49
  call void @llvm.lifetime.start.p0(i64 8, ptr %10) #12
  %16 = load ptr, ptr %6, align 8, !tbaa !4
  %17 = getelementptr inbounds nuw %struct.AVFilterContext, ptr %16, i32 0, i32 9
  %18 = load ptr, ptr %17, align 8, !tbaa !9
  store ptr %18, ptr %10, align 8, !tbaa !22
  call void @llvm.lifetime.start.p0(i64 8, ptr %11) #12
  %19 = load ptr, ptr %6, align 8, !tbaa !4
  %20 = getelementptr inbounds nuw %struct.AVFilterContext, ptr %19, i32 0, i32 7
  %21 = load ptr, ptr %20, align 8, !tbaa !51
  %22 = getelementptr inbounds ptr, ptr %21, i64 0
  %23 = load ptr, ptr %22, align 8, !tbaa !52
  store ptr %23, ptr %11, align 8, !tbaa !52
  call void @llvm.lifetime.start.p0(i64 4, ptr %12) #12
  %24 = load ptr, ptr %11, align 8, !tbaa !52
  %25 = load ptr, ptr %11, align 8, !tbaa !52
  %26 = getelementptr inbounds nuw %struct.AVFilterLink, ptr %25, i32 0, i32 6
  %27 = load i32, ptr %26, align 8, !tbaa !65
  %28 = load ptr, ptr %11, align 8, !tbaa !52
  %29 = getelementptr inbounds nuw %struct.AVFilterLink, ptr %28, i32 0, i32 7
  %30 = load i32, ptr %29, align 4, !tbaa !66
  %31 = call ptr @ff_get_video_buffer(ptr noundef %24, i32 noundef %27, i32 noundef %30)
  %32 = load ptr, ptr %7, align 8, !tbaa !86
  store ptr %31, ptr %32, align 8, !tbaa !49
  %33 = load ptr, ptr %7, align 8, !tbaa !86
  %34 = load ptr, ptr %33, align 8, !tbaa !49
  %35 = icmp ne ptr %34, null
  br i1 %35, label %37, label %36

36:                                               ; preds = %4
  store i32 -12, ptr %5, align 4
  store i32 1, ptr %13, align 4
  br label %235

37:                                               ; preds = %4
  %38 = load ptr, ptr %7, align 8, !tbaa !86
  %39 = load ptr, ptr %38, align 8, !tbaa !49
  %40 = load ptr, ptr %8, align 8, !tbaa !49
  %41 = call i32 @av_frame_copy_props(ptr noundef %39, ptr noundef %40)
  store i32 0, ptr %12, align 4, !tbaa !43
  br label %42

42:                                               ; preds = %231, %37
  %43 = load i32, ptr %12, align 4, !tbaa !43
  %44 = load ptr, ptr %10, align 8, !tbaa !22
  %45 = getelementptr inbounds nuw %struct.BM3DContext, ptr %44, i32 0, i32 14
  %46 = load i32, ptr %45, align 4, !tbaa !88
  %47 = icmp slt i32 %43, %46
  br i1 %47, label %48, label %234

48:                                               ; preds = %42
  call void @llvm.lifetime.start.p0(i64 4, ptr %14) #12
  %49 = load ptr, ptr %10, align 8, !tbaa !22
  %50 = getelementptr inbounds nuw %struct.BM3DContext, ptr %49, i32 0, i32 21
  %51 = load i32, ptr %50, align 8, !tbaa !44
  %52 = load ptr, ptr %10, align 8, !tbaa !22
  %53 = getelementptr inbounds nuw %struct.BM3DContext, ptr %52, i32 0, i32 16
  %54 = load i32, ptr %12, align 4, !tbaa !43
  %55 = sext i32 %54 to i64
  %56 = getelementptr inbounds [4 x i32], ptr %53, i64 0, i64 %55
  %57 = load i32, ptr %56, align 4, !tbaa !43
  %58 = load ptr, ptr %10, align 8, !tbaa !22
  %59 = getelementptr inbounds nuw %struct.BM3DContext, ptr %58, i32 0, i32 2
  %60 = load i32, ptr %59, align 4, !tbaa !36
  %61 = sdiv i32 %57, %60
  %62 = icmp sgt i32 %51, %61
  br i1 %62, label %63, label %74

63:                                               ; preds = %48
  %64 = load ptr, ptr %10, align 8, !tbaa !22
  %65 = getelementptr inbounds nuw %struct.BM3DContext, ptr %64, i32 0, i32 16
  %66 = load i32, ptr %12, align 4, !tbaa !43
  %67 = sext i32 %66 to i64
  %68 = getelementptr inbounds [4 x i32], ptr %65, i64 0, i64 %67
  %69 = load i32, ptr %68, align 4, !tbaa !43
  %70 = load ptr, ptr %10, align 8, !tbaa !22
  %71 = getelementptr inbounds nuw %struct.BM3DContext, ptr %70, i32 0, i32 2
  %72 = load i32, ptr %71, align 4, !tbaa !36
  %73 = sdiv i32 %69, %72
  br label %78

74:                                               ; preds = %48
  %75 = load ptr, ptr %10, align 8, !tbaa !22
  %76 = getelementptr inbounds nuw %struct.BM3DContext, ptr %75, i32 0, i32 21
  %77 = load i32, ptr %76, align 8, !tbaa !44
  br label %78

78:                                               ; preds = %74, %63
  %79 = phi i32 [ %73, %63 ], [ %77, %74 ]
  %80 = icmp sgt i32 1, %79
  br i1 %80, label %81, label %82

81:                                               ; preds = %78
  br label %114

82:                                               ; preds = %78
  %83 = load ptr, ptr %10, align 8, !tbaa !22
  %84 = getelementptr inbounds nuw %struct.BM3DContext, ptr %83, i32 0, i32 21
  %85 = load i32, ptr %84, align 8, !tbaa !44
  %86 = load ptr, ptr %10, align 8, !tbaa !22
  %87 = getelementptr inbounds nuw %struct.BM3DContext, ptr %86, i32 0, i32 16
  %88 = load i32, ptr %12, align 4, !tbaa !43
  %89 = sext i32 %88 to i64
  %90 = getelementptr inbounds [4 x i32], ptr %87, i64 0, i64 %89
  %91 = load i32, ptr %90, align 4, !tbaa !43
  %92 = load ptr, ptr %10, align 8, !tbaa !22
  %93 = getelementptr inbounds nuw %struct.BM3DContext, ptr %92, i32 0, i32 2
  %94 = load i32, ptr %93, align 4, !tbaa !36
  %95 = sdiv i32 %91, %94
  %96 = icmp sgt i32 %85, %95
  br i1 %96, label %97, label %108

97:                                               ; preds = %82
  %98 = load ptr, ptr %10, align 8, !tbaa !22
  %99 = getelementptr inbounds nuw %struct.BM3DContext, ptr %98, i32 0, i32 16
  %100 = load i32, ptr %12, align 4, !tbaa !43
  %101 = sext i32 %100 to i64
  %102 = getelementptr inbounds [4 x i32], ptr %99, i64 0, i64 %101
  %103 = load i32, ptr %102, align 4, !tbaa !43
  %104 = load ptr, ptr %10, align 8, !tbaa !22
  %105 = getelementptr inbounds nuw %struct.BM3DContext, ptr %104, i32 0, i32 2
  %106 = load i32, ptr %105, align 4, !tbaa !36
  %107 = sdiv i32 %103, %106
  br label %112

108:                                              ; preds = %82
  %109 = load ptr, ptr %10, align 8, !tbaa !22
  %110 = getelementptr inbounds nuw %struct.BM3DContext, ptr %109, i32 0, i32 21
  %111 = load i32, ptr %110, align 8, !tbaa !44
  br label %112

112:                                              ; preds = %108, %97
  %113 = phi i32 [ %107, %97 ], [ %111, %108 ]
  br label %114

114:                                              ; preds = %112, %81
  %115 = phi i32 [ 1, %81 ], [ %113, %112 ]
  store i32 %115, ptr %14, align 4, !tbaa !43
  call void @llvm.lifetime.start.p0(i64 32, ptr %15) #12
  %116 = load i32, ptr %12, align 4, !tbaa !43
  %117 = shl i32 1, %116
  %118 = load ptr, ptr %10, align 8, !tbaa !22
  %119 = getelementptr inbounds nuw %struct.BM3DContext, ptr %118, i32 0, i32 11
  %120 = load i32, ptr %119, align 8, !tbaa !89
  %121 = and i32 %117, %120
  %122 = icmp ne i32 %121, 0
  br i1 %122, label %123, label %128

123:                                              ; preds = %114
  %124 = load ptr, ptr %6, align 8, !tbaa !4
  %125 = getelementptr inbounds nuw %struct.AVFilterContext, ptr %124, i32 0, i32 17
  %126 = load i32, ptr %125, align 8, !tbaa !90
  %127 = icmp ne i32 %126, 0
  br i1 %127, label %128, label %174

128:                                              ; preds = %123, %114
  %129 = load ptr, ptr %7, align 8, !tbaa !86
  %130 = load ptr, ptr %129, align 8, !tbaa !49
  %131 = getelementptr inbounds nuw %struct.AVFrame, ptr %130, i32 0, i32 0
  %132 = load i32, ptr %12, align 4, !tbaa !43
  %133 = sext i32 %132 to i64
  %134 = getelementptr inbounds [8 x ptr], ptr %131, i64 0, i64 %133
  %135 = load ptr, ptr %134, align 8, !tbaa !91
  %136 = load ptr, ptr %7, align 8, !tbaa !86
  %137 = load ptr, ptr %136, align 8, !tbaa !49
  %138 = getelementptr inbounds nuw %struct.AVFrame, ptr %137, i32 0, i32 1
  %139 = load i32, ptr %12, align 4, !tbaa !43
  %140 = sext i32 %139 to i64
  %141 = getelementptr inbounds [8 x i32], ptr %138, i64 0, i64 %140
  %142 = load i32, ptr %141, align 4, !tbaa !43
  %143 = load ptr, ptr %8, align 8, !tbaa !49
  %144 = getelementptr inbounds nuw %struct.AVFrame, ptr %143, i32 0, i32 0
  %145 = load i32, ptr %12, align 4, !tbaa !43
  %146 = sext i32 %145 to i64
  %147 = getelementptr inbounds [8 x ptr], ptr %144, i64 0, i64 %146
  %148 = load ptr, ptr %147, align 8, !tbaa !91
  %149 = load ptr, ptr %8, align 8, !tbaa !49
  %150 = getelementptr inbounds nuw %struct.AVFrame, ptr %149, i32 0, i32 1
  %151 = load i32, ptr %12, align 4, !tbaa !43
  %152 = sext i32 %151 to i64
  %153 = getelementptr inbounds [8 x i32], ptr %150, i64 0, i64 %152
  %154 = load i32, ptr %153, align 4, !tbaa !43
  %155 = load ptr, ptr %10, align 8, !tbaa !22
  %156 = getelementptr inbounds nuw %struct.BM3DContext, ptr %155, i32 0, i32 15
  %157 = load i32, ptr %12, align 4, !tbaa !43
  %158 = sext i32 %157 to i64
  %159 = getelementptr inbounds [4 x i32], ptr %156, i64 0, i64 %158
  %160 = load i32, ptr %159, align 4, !tbaa !43
  %161 = load ptr, ptr %10, align 8, !tbaa !22
  %162 = getelementptr inbounds nuw %struct.BM3DContext, ptr %161, i32 0, i32 12
  %163 = load i32, ptr %162, align 4, !tbaa !92
  %164 = icmp sgt i32 %163, 8
  %165 = zext i1 %164 to i32
  %166 = add nsw i32 1, %165
  %167 = mul nsw i32 %160, %166
  %168 = load ptr, ptr %10, align 8, !tbaa !22
  %169 = getelementptr inbounds nuw %struct.BM3DContext, ptr %168, i32 0, i32 16
  %170 = load i32, ptr %12, align 4, !tbaa !43
  %171 = sext i32 %170 to i64
  %172 = getelementptr inbounds [4 x i32], ptr %169, i64 0, i64 %171
  %173 = load i32, ptr %172, align 4, !tbaa !43
  call void @av_image_copy_plane(ptr noundef %135, i32 noundef %142, ptr noundef %148, i32 noundef %154, i32 noundef %167, i32 noundef %173)
  store i32 4, ptr %13, align 4
  br label %228

174:                                              ; preds = %123
  %175 = load ptr, ptr %8, align 8, !tbaa !49
  %176 = getelementptr inbounds nuw %struct.AVFrame, ptr %175, i32 0, i32 0
  %177 = load i32, ptr %12, align 4, !tbaa !43
  %178 = sext i32 %177 to i64
  %179 = getelementptr inbounds [8 x ptr], ptr %176, i64 0, i64 %178
  %180 = load ptr, ptr %179, align 8, !tbaa !91
  %181 = getelementptr inbounds nuw %struct.ThreadData, ptr %15, i32 0, i32 0
  store ptr %180, ptr %181, align 8, !tbaa !93
  %182 = load ptr, ptr %8, align 8, !tbaa !49
  %183 = getelementptr inbounds nuw %struct.AVFrame, ptr %182, i32 0, i32 1
  %184 = load i32, ptr %12, align 4, !tbaa !43
  %185 = sext i32 %184 to i64
  %186 = getelementptr inbounds [8 x i32], ptr %183, i64 0, i64 %185
  %187 = load i32, ptr %186, align 4, !tbaa !43
  %188 = getelementptr inbounds nuw %struct.ThreadData, ptr %15, i32 0, i32 1
  store i32 %187, ptr %188, align 8, !tbaa !95
  %189 = load ptr, ptr %9, align 8, !tbaa !49
  %190 = getelementptr inbounds nuw %struct.AVFrame, ptr %189, i32 0, i32 0
  %191 = load i32, ptr %12, align 4, !tbaa !43
  %192 = sext i32 %191 to i64
  %193 = getelementptr inbounds [8 x ptr], ptr %190, i64 0, i64 %192
  %194 = load ptr, ptr %193, align 8, !tbaa !91
  %195 = getelementptr inbounds nuw %struct.ThreadData, ptr %15, i32 0, i32 2
  store ptr %194, ptr %195, align 8, !tbaa !96
  %196 = load ptr, ptr %9, align 8, !tbaa !49
  %197 = getelementptr inbounds nuw %struct.AVFrame, ptr %196, i32 0, i32 1
  %198 = load i32, ptr %12, align 4, !tbaa !43
  %199 = sext i32 %198 to i64
  %200 = getelementptr inbounds [8 x i32], ptr %197, i64 0, i64 %199
  %201 = load i32, ptr %200, align 4, !tbaa !43
  %202 = getelementptr inbounds nuw %struct.ThreadData, ptr %15, i32 0, i32 3
  store i32 %201, ptr %202, align 8, !tbaa !97
  %203 = load i32, ptr %12, align 4, !tbaa !43
  %204 = getelementptr inbounds nuw %struct.ThreadData, ptr %15, i32 0, i32 4
  store i32 %203, ptr %204, align 4, !tbaa !98
  %205 = load ptr, ptr %6, align 8, !tbaa !4
  %206 = load i32, ptr %14, align 4, !tbaa !43
  %207 = call i32 @ff_filter_execute(ptr noundef %205, ptr noundef @filter_slice, ptr noundef %15, ptr noundef null, i32 noundef %206)
  %208 = load ptr, ptr %10, align 8, !tbaa !22
  %209 = getelementptr inbounds nuw %struct.BM3DContext, ptr %208, i32 0, i32 24
  %210 = load ptr, ptr %209, align 8, !tbaa !99
  %211 = load ptr, ptr %10, align 8, !tbaa !22
  %212 = load ptr, ptr %7, align 8, !tbaa !86
  %213 = load ptr, ptr %212, align 8, !tbaa !49
  %214 = getelementptr inbounds nuw %struct.AVFrame, ptr %213, i32 0, i32 0
  %215 = load i32, ptr %12, align 4, !tbaa !43
  %216 = sext i32 %215 to i64
  %217 = getelementptr inbounds [8 x ptr], ptr %214, i64 0, i64 %216
  %218 = load ptr, ptr %217, align 8, !tbaa !91
  %219 = load ptr, ptr %7, align 8, !tbaa !86
  %220 = load ptr, ptr %219, align 8, !tbaa !49
  %221 = getelementptr inbounds nuw %struct.AVFrame, ptr %220, i32 0, i32 1
  %222 = load i32, ptr %12, align 4, !tbaa !43
  %223 = sext i32 %222 to i64
  %224 = getelementptr inbounds [8 x i32], ptr %221, i64 0, i64 %223
  %225 = load i32, ptr %224, align 4, !tbaa !43
  %226 = load i32, ptr %12, align 4, !tbaa !43
  %227 = load i32, ptr %14, align 4, !tbaa !43
  call void %210(ptr noundef %211, ptr noundef %218, i32 noundef %225, i32 noundef %226, i32 noundef %227)
  store i32 0, ptr %13, align 4
  br label %228

228:                                              ; preds = %174, %128
  call void @llvm.lifetime.end.p0(i64 32, ptr %15) #12
  call void @llvm.lifetime.end.p0(i64 4, ptr %14) #12
  %229 = load i32, ptr %13, align 4
  switch i32 %229, label %237 [
    i32 0, label %230
    i32 4, label %231
  ]

230:                                              ; preds = %228
  br label %231

231:                                              ; preds = %230, %228
  %232 = load i32, ptr %12, align 4, !tbaa !43
  %233 = add nsw i32 %232, 1
  store i32 %233, ptr %12, align 4, !tbaa !43
  br label %42, !llvm.loop !100

234:                                              ; preds = %42
  store i32 0, ptr %5, align 4
  store i32 1, ptr %13, align 4
  br label %235

235:                                              ; preds = %234, %36
  call void @llvm.lifetime.end.p0(i64 4, ptr %12) #12
  call void @llvm.lifetime.end.p0(i64 8, ptr %11) #12
  call void @llvm.lifetime.end.p0(i64 8, ptr %10) #12
  %236 = load i32, ptr %5, align 4
  ret i32 %236

237:                                              ; preds = %228
  unreachable
}