; Function Attrs: nounwind uwtable
define internal fastcc range(i32 -12, 1) i32 @filter_frame(ptr noundef %0, ptr noundef nonnull captures(none) initializes((0, 8)) %1, ptr noundef %2, ptr noundef readonly captures(none) %3) unnamed_addr #1 {
  %5 = alloca %struct.ThreadData, align 8
  %6 = getelementptr inbounds nuw i8, ptr %0, i64 72
  %7 = load ptr, ptr %6, align 8, !tbaa !4
  %8 = getelementptr inbounds nuw i8, ptr %0, i64 56
  %9 = load ptr, ptr %8, align 8, !tbaa !45
  %10 = load ptr, ptr %9, align 8, !tbaa !46
  %11 = getelementptr inbounds nuw i8, ptr %10, i64 40
  %12 = load i32, ptr %11, align 8, !tbaa !58
  %13 = getelementptr inbounds nuw i8, ptr %10, i64 44
  %14 = load i32, ptr %13, align 4, !tbaa !59
  %15 = tail call ptr @ff_get_video_buffer(ptr noundef %10, i32 noundef %12, i32 noundef %14) #15
  store ptr %15, ptr %1, align 8, !tbaa !43
  %.not = icmp eq ptr %15, null
  br i1 %.not, label %.loopexit, label %16

16:                                               ; preds = %4
  %17 = tail call i32 @av_frame_copy_props(ptr noundef nonnull %15, ptr noundef %2) #15
  %18 = getelementptr inbounds nuw i8, ptr %7, i64 60
  %19 = load i32, ptr %18, align 4, !tbaa !75
  %20 = icmp sgt i32 %19, 0
  br i1 %20, label %.lr.ph, label %.loopexit

.lr.ph:                                           ; preds = %16
  %21 = getelementptr inbounds nuw i8, ptr %7, i64 136648
  %22 = getelementptr inbounds nuw i8, ptr %7, i64 80
  %23 = getelementptr inbounds nuw i8, ptr %7, i64 12
  %24 = getelementptr inbounds nuw i8, ptr %7, i64 48
  %25 = getelementptr inbounds nuw i8, ptr %0, i64 128
  %26 = getelementptr inbounds nuw i8, ptr %2, i64 64
  %27 = getelementptr inbounds nuw i8, ptr %5, i64 8
  %28 = getelementptr inbounds nuw i8, ptr %5, i64 16
  %29 = getelementptr inbounds nuw i8, ptr %3, i64 64
  %30 = getelementptr inbounds nuw i8, ptr %5, i64 24
  %31 = getelementptr inbounds nuw i8, ptr %5, i64 28
  %32 = getelementptr inbounds nuw i8, ptr %7, i64 136672
  %33 = getelementptr inbounds nuw i8, ptr %7, i64 64
  %34 = getelementptr inbounds nuw i8, ptr %7, i64 52
  br label %35

35:                                               ; preds = %.lr.ph, %81
  %indvars.iv = phi i64 [ 0, %.lr.ph ], [ %indvars.iv.next, %81 ]
  %36 = load i32, ptr %21, align 8, !tbaa !40
  %37 = getelementptr inbounds nuw [4 x i32], ptr %22, i64 0, i64 %indvars.iv
  %38 = load i32, ptr %37, align 4, !tbaa !49
  %39 = load i32, ptr %23, align 4, !tbaa !33
  %40 = sdiv i32 %38, %39
  %. = call i32 @llvm.smin.i32(i32 %36, i32 %40)
  %spec.select = call i32 @llvm.smax.i32(i32 %., i32 1)
  call void @llvm.lifetime.start.p0(i64 32, ptr nonnull %5) #15
  %41 = trunc nuw nsw i64 %indvars.iv to i32
  %42 = shl nuw i32 1, %41
  %43 = load i32, ptr %24, align 8, !tbaa !76
  %44 = and i32 %43, %42
  %.not69 = icmp eq i32 %44, 0
  br i1 %.not69, label %47, label %45

45:                                               ; preds = %35
  %46 = load i32, ptr %25, align 8, !tbaa !77
  %.not70 = icmp eq i32 %46, 0
  br i1 %.not70, label %64, label %47

47:                                               ; preds = %45, %35
  %48 = load ptr, ptr %1, align 8, !tbaa !43
  %49 = getelementptr inbounds nuw [8 x ptr], ptr %48, i64 0, i64 %indvars.iv
  %50 = load ptr, ptr %49, align 8, !tbaa !78
  %51 = getelementptr inbounds nuw i8, ptr %48, i64 64
  %52 = getelementptr inbounds nuw [8 x i32], ptr %51, i64 0, i64 %indvars.iv
  %53 = load i32, ptr %52, align 4, !tbaa !49
  %54 = getelementptr inbounds nuw [8 x ptr], ptr %2, i64 0, i64 %indvars.iv
  %55 = load ptr, ptr %54, align 8, !tbaa !78
  %56 = getelementptr inbounds nuw [8 x i32], ptr %26, i64 0, i64 %indvars.iv
  %57 = load i32, ptr %56, align 4, !tbaa !49
  %58 = getelementptr inbounds nuw [4 x i32], ptr %33, i64 0, i64 %indvars.iv
  %59 = load i32, ptr %58, align 4, !tbaa !49
  %60 = load i32, ptr %34, align 4, !tbaa !79
  %61 = icmp sgt i32 %60, 8
  %62 = zext i1 %61 to i32
  %63 = shl i32 %59, %62
  call void @av_image_copy_plane(ptr noundef %50, i32 noundef %53, ptr noundef %55, i32 noundef %57, i32 noundef %63, i32 noundef %38) #15
  br label %81

64:                                               ; preds = %45
  %65 = getelementptr inbounds nuw [8 x ptr], ptr %2, i64 0, i64 %indvars.iv
  %66 = load ptr, ptr %65, align 8, !tbaa !78
  store ptr %66, ptr %5, align 8, !tbaa !80
  %67 = getelementptr inbounds nuw [8 x i32], ptr %26, i64 0, i64 %indvars.iv
  %68 = load i32, ptr %67, align 4, !tbaa !49
  store i32 %68, ptr %27, align 8, !tbaa !82
  %69 = getelementptr inbounds nuw [8 x ptr], ptr %3, i64 0, i64 %indvars.iv
  %70 = load ptr, ptr %69, align 8, !tbaa !78
  store ptr %70, ptr %28, align 8, !tbaa !83
  %71 = getelementptr inbounds nuw [8 x i32], ptr %29, i64 0, i64 %indvars.iv
  %72 = load i32, ptr %71, align 4, !tbaa !49
  store i32 %72, ptr %30, align 8, !tbaa !84
  store i32 %41, ptr %31, align 4, !tbaa !85
  %73 = call i32 @ff_filter_execute(ptr noundef nonnull %0, ptr noundef nonnull @filter_slice, ptr noundef nonnull %5, ptr noundef null, i32 noundef %spec.select) #15
  %74 = load ptr, ptr %32, align 8, !tbaa !86
  %75 = load ptr, ptr %1, align 8, !tbaa !43
  %76 = getelementptr inbounds nuw [8 x ptr], ptr %75, i64 0, i64 %indvars.iv
  %77 = load ptr, ptr %76, align 8, !tbaa !78
  %78 = getelementptr inbounds nuw i8, ptr %75, i64 64
  %79 = getelementptr inbounds nuw [8 x i32], ptr %78, i64 0, i64 %indvars.iv
  %80 = load i32, ptr %79, align 4, !tbaa !49
  call void %74(ptr noundef nonnull %7, ptr noundef %77, i32 noundef %80, i32 noundef %41, i32 noundef %spec.select) #15
  br label %81

81:                                               ; preds = %64, %47
  call void @llvm.lifetime.end.p0(i64 32, ptr nonnull %5) #15
  %indvars.iv.next = add nuw nsw i64 %indvars.iv, 1
  %82 = load i32, ptr %18, align 4, !tbaa !75
  %83 = sext i32 %82 to i64
  %84 = icmp slt i64 %indvars.iv.next, %83
  br i1 %84, label %35, label %.loopexit, !llvm.loop !87

.loopexit:                                        ; preds = %81, %16, %4
  %.0 = phi i32 [ -12, %4 ], [ 0, %16 ], [ 0, %81 ]
  ret i32 %.0
}